target datalayout = "e-m:e-p270:32:32-p271:32:32-p272:64:64-i64:64-i128:128-f80:128-n8:16:32:64-S128"
target triple = "x86_64-pc-linux-gnu"

%struct.WOLFSSL_BUFFER_INFO = type { ptr, i32 }
%struct.WOLFSSL = type <{ ptr, ptr, ptr, ptr, [48 x i8], [48 x i8], ptr, ptr, ptr, ptr, ptr, ptr, ptr, ptr, ptr, ptr, ptr, ptr, ptr, i32, [4 x i8], %struct.WOLFSSL_CIPHER, ptr, %struct.Ciphers, %struct.Ciphers, [8 x i8], %struct.Buffers, ptr, ptr, %struct.WOLFSSL_ALERT_HISTORY, %struct.WOLFSSL_ALERT, i32, i32, i32, i32, i32, i32, i32, i16, [2 x i8], i32, i8, %struct.RecordLayerHeader, %struct.MsgsReceived, %struct.ProtocolVersion, %struct.ProtocolVersion, %struct.CipherSpecs, [2 x i8], %struct.Keys, %struct.Options, ptr, i8, i8, i16, [10 x i16], i8, i8, i16, i16, [38 x i8], i32, i32, [4 x i8], ptr, i8, i8, [6 x i8], ptr, ptr, i16, i8, i8, i32, i8, [3 x i8], i32, %struct.OneTimeAuth, ptr }>
%struct.WOLFSSL_CIPHER = type { i8, i8, ptr }
%struct.Ciphers = type { ptr, ptr, ptr, ptr, i8, i8 }
%struct.Buffers = type { %struct.bufferStatic, %struct.bufferStatic, %struct.WOLFSSL_BUFFER_INFO, %struct.WOLFSSL_BUFFER_INFO, %struct.WOLFSSL_BUFFER_INFO, %struct.WOLFSSL_BUFFER_INFO, i32, i32, i8, i8, i8, i8, %struct.WOLFSSL_BUFFER_INFO, %struct.WOLFSSL_BUFFER_INFO, %struct.WOLFSSL_BUFFER_INFO, %struct.WOLFSSL_BUFFER_INFO, ptr, ptr, ptr, i8, i8, i32, i32, ptr, i32, [1 x ptr] }
%struct.bufferStatic = type { [5 x i8], ptr, i32, i32, i32, i8, i8 }
%struct.WOLFSSL_ALERT_HISTORY = type { %struct.WOLFSSL_ALERT, %struct.WOLFSSL_ALERT }
%struct.WOLFSSL_ALERT = type { i32, i32 }
%struct.RecordLayerHeader = type { i8, i8, i8, [2 x i8] }
%struct.MsgsReceived = type { i32 }
%struct.ProtocolVersion = type { i8, i8 }
%struct.CipherSpecs = type { i16, i16, i16, i16, i8, i8, i8, i8, i8, i8, i8, i8 }
%struct.Keys = type { [64 x i8], [64 x i8], [32 x i8], [32 x i8], [16 x i8], [16 x i8], [8 x i8], [12 x i8], [12 x i8], i32, i32, i32, i32, i32, i32, i8, i8, i8, i8 }
%struct.Options = type { i64, i64, i8, i8, i8, i8, i8, i8, i8, i8, i8, i8, i8, i8, i8, i8, i8, i8, i8, i8, i8, i8, i8, i16, i16, i16, i16, i16, i8 }
%struct.OneTimeAuth = type { ptr, i8 }

; Function Attrs: nounwind uwtable
define i32 @wolfSSL_SetVersion(ptr noundef %0, i32 noundef %1) #0 {
  %3 = alloca i32, align 4
  %4 = alloca ptr, align 8
  %5 = alloca i32, align 4
  %6 = alloca i16, align 2
  %7 = alloca i16, align 2
  %8 = alloca i32, align 4
  %9 = alloca i32, align 4
  %10 = alloca %struct.ProtocolVersion, align 1
  %11 = alloca %struct.ProtocolVersion, align 1
  %12 = alloca %struct.ProtocolVersion, align 1
  store ptr %0, ptr %4, align 8, !tbaa !61
  store i32 %1, ptr %5, align 4, !tbaa !7
  call void @llvm.lifetime.start.p0(i64 2, ptr %6) #9
  store i16 1, ptr %6, align 2, !tbaa !94
  call void @llvm.lifetime.start.p0(i64 2, ptr %7) #9
  store i16 0, ptr %7, align 2, !tbaa !94
  call void @llvm.lifetime.start.p0(i64 4, ptr %8) #9
  store i32 0, ptr %8, align 4, !tbaa !7
  br label %13

13:                                               ; preds = %2
  br label %14

14:                                               ; preds = %13
  br label %15

15:                                               ; preds = %14
  %16 = load ptr, ptr %4, align 8, !tbaa !61
  %17 = icmp eq ptr %16, null
  br i1 %17, label %18, label %22

18:                                               ; preds = %15
  br label %19

19:                                               ; preds = %18
  br label %20

20:                                               ; preds = %19
  br label %21

21:                                               ; preds = %20
  store i32 -173, ptr %3, align 4
  store i32 1, ptr %9, align 4
  br label %102

22:                                               ; preds = %15
  %23 = load i32, ptr %5, align 4, !tbaa !7
  switch i32 %23, label %36 [
    i32 2, label %24
    i32 3, label %28
    i32 4, label %32
  ]

24:                                               ; preds = %22
  %25 = load ptr, ptr %4, align 8, !tbaa !61
  %26 = getelementptr inbounds nuw %struct.WOLFSSL, ptr %25, i32 0, i32 44
  call void @llvm.lifetime.start.p0(i64 2, ptr %10) #9
  %27 = call i16 @MakeTLSv1_1()
  store i16 %27, ptr %10, align 1
  call void @llvm.memcpy.p0.p0.i64(ptr align 2 %26, ptr align 1 %10, i64 2, i1 false), !tbaa.struct !198
  call void @llvm.lifetime.end.p0(i64 2, ptr %10) #9
  br label %40

28:                                               ; preds = %22
  %29 = load ptr, ptr %4, align 8, !tbaa !61
  %30 = getelementptr inbounds nuw %struct.WOLFSSL, ptr %29, i32 0, i32 44
  call void @llvm.lifetime.start.p0(i64 2, ptr %11) #9
  %31 = call i16 @MakeTLSv1_2()
  store i16 %31, ptr %11, align 1
  call void @llvm.memcpy.p0.p0.i64(ptr align 2 %30, ptr align 1 %11, i64 2, i1 false), !tbaa.struct !198
  call void @llvm.lifetime.end.p0(i64 2, ptr %11) #9
  br label %40

32:                                               ; preds = %22
  %33 = load ptr, ptr %4, align 8, !tbaa !61
  %34 = getelementptr inbounds nuw %struct.WOLFSSL, ptr %33, i32 0, i32 44
  call void @llvm.lifetime.start.p0(i64 2, ptr %12) #9
  %35 = call i16 @MakeTLSv1_3()
  store i16 %35, ptr %12, align 1
  call void @llvm.memcpy.p0.p0.i64(ptr align 2 %34, ptr align 1 %12, i64 2, i1 false), !tbaa.struct !198
  call void @llvm.lifetime.end.p0(i64 2, ptr %12) #9
  br label %40

36:                                               ; preds = %22
  br label %37

37:                                               ; preds = %36
  br label %38

38:                                               ; preds = %37
  br label %39

39:                                               ; preds = %38
  store i32 -173, ptr %3, align 4
  store i32 1, ptr %9, align 4
  br label %102

40:                                               ; preds = %32, %28, %24
  %41 = load ptr, ptr %4, align 8, !tbaa !61
  %42 = getelementptr inbounds nuw %struct.WOLFSSL, ptr %41, i32 0, i32 26
  %43 = getelementptr inbounds nuw %struct.Buffers, ptr %42, i32 0, i32 21
  %44 = load i32, ptr %43, align 4, !tbaa !199
  store i32 %44, ptr %8, align 4, !tbaa !7
  %45 = load ptr, ptr %4, align 8, !tbaa !61
  %46 = call i32 @AllocateSuites(ptr noundef %45)
  %47 = icmp ne i32 %46, 0
  br i1 %47, label %48, label %49

48:                                               ; preds = %40
  store i32 0, ptr %3, align 4
  store i32 1, ptr %9, align 4
  br label %102

49:                                               ; preds = %40
  %50 = load ptr, ptr %4, align 8, !tbaa !61
  %51 = getelementptr inbounds nuw %struct.WOLFSSL, ptr %50, i32 0, i32 1
  %52 = load ptr, ptr %51, align 8, !tbaa !200
  %53 = load ptr, ptr %4, align 8, !tbaa !61
  %54 = getelementptr inbounds nuw %struct.WOLFSSL, ptr %53, i32 0, i32 44
  %55 = load i32, ptr %8, align 4, !tbaa !7
  %56 = load i16, ptr %6, align 2, !tbaa !94
  %57 = load i16, ptr %7, align 2, !tbaa !94
  %58 = load ptr, ptr %4, align 8, !tbaa !61
  %59 = getelementptr inbounds nuw %struct.WOLFSSL, ptr %58, i32 0, i32 49
  %60 = getelementptr inbounds nuw %struct.Options, ptr %59, i32 0, i32 1
  %61 = load i64, ptr %60, align 8
  %62 = lshr i64 %61, 25
  %63 = and i64 %62, 1
  %64 = trunc i64 %63 to i16
  %65 = load ptr, ptr %4, align 8, !tbaa !61
  %66 = getelementptr inbounds nuw %struct.WOLFSSL, ptr %65, i32 0, i32 49
  %67 = getelementptr inbounds nuw %struct.Options, ptr %66, i32 0, i32 1
  %68 = load i64, ptr %67, align 8
  %69 = lshr i64 %68, 26
  %70 = and i64 %69, 1
  %71 = trunc i64 %70 to i16
  %72 = load ptr, ptr %4, align 8, !tbaa !61
  %73 = getelementptr inbounds nuw %struct.WOLFSSL, ptr %72, i32 0, i32 49
  %74 = getelementptr inbounds nuw %struct.Options, ptr %73, i32 0, i32 1
  %75 = load i64, ptr %74, align 8
  %76 = lshr i64 %75, 24
  %77 = and i64 %76, 1
  %78 = trunc i64 %77 to i16
  %79 = load ptr, ptr %4, align 8, !tbaa !61
  %80 = getelementptr inbounds nuw %struct.WOLFSSL, ptr %79, i32 0, i32 49
  %81 = getelementptr inbounds nuw %struct.Options, ptr %80, i32 0, i32 1
  %82 = load i64, ptr %81, align 8
  %83 = lshr i64 %82, 27
  %84 = and i64 %83, 1
  %85 = trunc i64 %84 to i16
  %86 = load ptr, ptr %4, align 8, !tbaa !61
  %87 = getelementptr inbounds nuw %struct.WOLFSSL, ptr %86, i32 0, i32 49
  %88 = getelementptr inbounds nuw %struct.Options, ptr %87, i32 0, i32 1
  %89 = load i64, ptr %88, align 8
  %90 = lshr i64 %89, 43
  %91 = and i64 %90, 1
  %92 = trunc i64 %91 to i16
  %93 = load ptr, ptr %4, align 8, !tbaa !61
  %94 = getelementptr inbounds nuw %struct.WOLFSSL, ptr %93, i32 0, i32 49
  %95 = getelementptr inbounds nuw %struct.Options, ptr %94, i32 0, i32 1
  %96 = load i64, ptr %95, align 8
  %97 = lshr i64 %96, 4
  %98 = and i64 %97, 3
  %99 = trunc i64 %98 to i16
  %100 = zext i16 %99 to i32
  %101 = load i16, ptr %54, align 2
  call void @InitSuites(ptr noundef %52, i16 %101, i32 noundef %55, i16 noundef zeroext %56, i16 noundef zeroext %57, i16 noundef zeroext %64, i16 noundef zeroext %71, i16 noundef zeroext %78, i16 noundef zeroext 1, i16 noundef zeroext %85, i16 noundef zeroext %92, i16 noundef zeroext 1, i16 noundef zeroext 1, i16 noundef zeroext 1, i16 noundef zeroext 1, i32 noundef %100)
  store i32 1, ptr %3, align 4
  store i32 1, ptr %9, align 4
  br label %102

102:                                              ; preds = %49, %48, %39, %21
  call void @llvm.lifetime.end.p0(i64 4, ptr %8) #9
  call void @llvm.lifetime.end.p0(i64 2, ptr %7) #9
  call void @llvm.lifetime.end.p0(i64 2, ptr %6) #9
  %103 = load i32, ptr %3, align 4
  ret i32 %103
}