; Function Attrs: nounwind uwtable
define range(i32 -173, 2) i32 @wolfSSL_SetVersion(ptr noundef %0, i32 noundef %1) local_unnamed_addr #0 {
  %3 = icmp eq ptr %0, null
  br i1 %3, label %43, label %4

4:                                                ; preds = %2
  switch i32 %1, label %43 [
    i32 2, label %5
    i32 3, label %8
    i32 4, label %11
  ]

5:                                                ; preds = %4
  %6 = getelementptr inbounds nuw i8, ptr %0, i64 710
  %7 = tail call i16 @MakeTLSv1_1() #22
  store i16 %7, ptr %6, align 2
  br label %14

8:                                                ; preds = %4
  %9 = getelementptr inbounds nuw i8, ptr %0, i64 710
  %10 = tail call i16 @MakeTLSv1_2() #22
  store i16 %10, ptr %9, align 2
  br label %14

11:                                               ; preds = %4
  %12 = getelementptr inbounds nuw i8, ptr %0, i64 710
  %13 = tail call i16 @MakeTLSv1_3() #22
  store i16 %13, ptr %12, align 2
  br label %14

14:                                               ; preds = %11, %8, %5
  %15 = getelementptr inbounds nuw i8, ptr %0, i64 588
  %16 = load i32, ptr %15, align 4, !tbaa !175
  %17 = tail call i32 @AllocateSuites(ptr noundef nonnull %0) #22
  %.not = icmp eq i32 %17, 0
  br i1 %.not, label %18, label %43

18:                                               ; preds = %14
  %19 = getelementptr inbounds nuw i8, ptr %0, i64 8
  %20 = load ptr, ptr %19, align 8, !tbaa !176
  %21 = getelementptr inbounds nuw i8, ptr %0, i64 710
  %22 = getelementptr inbounds nuw i8, ptr %0, i64 1024
  %23 = load i64, ptr %22, align 8
  %24 = lshr i64 %23, 25
  %25 = trunc i64 %24 to i16
  %26 = and i16 %25, 1
  %27 = lshr i64 %23, 26
  %28 = trunc i64 %27 to i16
  %29 = and i16 %28, 1
  %30 = lshr i64 %23, 24
  %31 = trunc i64 %30 to i16
  %32 = and i16 %31, 1
  %33 = lshr i64 %23, 27
  %34 = trunc i64 %33 to i16
  %35 = and i16 %34, 1
  %36 = lshr i64 %23, 43
  %37 = trunc i64 %36 to i16
  %38 = and i16 %37, 1
  %39 = trunc i64 %23 to i32
  %40 = lshr i32 %39, 4
  %41 = and i32 %40, 3
  %42 = load i16, ptr %21, align 2
  tail call void @InitSuites(ptr noundef %20, i16 %42, i32 noundef %16, i16 noundef zeroext 1, i16 noundef zeroext 0, i16 noundef zeroext %26, i16 noundef zeroext %29, i16 noundef zeroext %32, i16 noundef zeroext 1, i16 noundef zeroext %35, i16 noundef zeroext %38, i16 noundef zeroext 1, i16 noundef zeroext 1, i16 noundef zeroext 1, i16 noundef zeroext 1, i32 noundef %41) #22
  br label %43

43:                                               ; preds = %14, %4, %2, %18
  %.0 = phi i32 [ 1, %18 ], [ -173, %2 ], [ -173, %4 ], [ 0, %14 ]
  ret i32 %.0
}